; Function Attrs: mustprogress uwtable
define noundef nonnull align 8 dereferenceable(40) ptr @_ZN32pxrInternal_v0_24__pxrReserved__35UsdImagingGetUnitCylinderMeshPointsEv() local_unnamed_addr #0 personality ptr @__gxx_personality_v0 {
  %1 = alloca [42 x %"class.pxrInternal_v0_24__pxrReserved__::GfVec3f"], align 4
  %2 = load atomic i8, ptr @_ZGVZN32pxrInternal_v0_24__pxrReserved__35UsdImagingGetUnitCylinderMeshPointsEvE6points acquire, align 8
  %3 = icmp eq i8 %2, 0
  br i1 %3, label %4, label %9, !prof !4

4:                                                ; preds = %0
  %5 = tail call i32 @__cxa_guard_acquire(ptr nonnull @_ZGVZN32pxrInternal_v0_24__pxrReserved__35UsdImagingGetUnitCylinderMeshPointsEvE6points) #12
  %.not = icmp eq i32 %5, 0
  br i1 %.not, label %9, label %6

6:                                                ; preds = %4
  call void @llvm.memcpy.p0.p0.i64(ptr noundef nonnull align 4 dereferenceable(504) %1, ptr noundef nonnull align 4 dereferenceable(504) @constinit.11, i64 504, i1 false)
  invoke void @_ZN32pxrInternal_v0_24__pxrReserved__7VtArrayINS_7GfVec3fEEC1ESt16initializer_listIS1_E(ptr noundef nonnull align 8 dereferenceable(40) @_ZZN32pxrInternal_v0_24__pxrReserved__35UsdImagingGetUnitCylinderMeshPointsEvE6points, ptr nonnull %1, i64 42)
          to label %7 unwind label %10

7:                                                ; preds = %6
  %8 = call i32 @__cxa_atexit(ptr nonnull @_ZN32pxrInternal_v0_24__pxrReserved__7VtArrayINS_7GfVec3fEED1Ev, ptr nonnull @_ZZN32pxrInternal_v0_24__pxrReserved__35UsdImagingGetUnitCylinderMeshPointsEvE6points, ptr nonnull @__dso_handle) #12
  call void @__cxa_guard_release(ptr nonnull @_ZGVZN32pxrInternal_v0_24__pxrReserved__35UsdImagingGetUnitCylinderMeshPointsEvE6points) #12
  br label %9

9:                                                ; preds = %7, %4, %0
  ret ptr @_ZZN32pxrInternal_v0_24__pxrReserved__35UsdImagingGetUnitCylinderMeshPointsEvE6points

10:                                               ; preds = %6
  %11 = landingpad { ptr, i32 }
          cleanup
  call void @__cxa_guard_abort(ptr nonnull @_ZGVZN32pxrInternal_v0_24__pxrReserved__35UsdImagingGetUnitCylinderMeshPointsEvE6points) #12
  resume { ptr, i32 } %11
}